target datalayout = "e-m:e-p270:32:32-p271:32:32-p272:64:64-i64:64-i128:128-f80:128-n8:16:32:64-S128"
target triple = "x86_64-pc-linux-gnu"

%struct.darktable_t = type { %struct.dt_codepath_t, i32, i32, ptr, ptr, ptr, ptr, ptr, ptr, ptr, ptr, ptr, ptr, ptr, ptr, ptr, ptr, ptr, ptr, ptr, ptr, ptr, ptr, ptr, ptr, ptr, ptr, ptr, ptr, ptr, [64 x %struct.dt_pthread_mutex_t], %struct.dt_pthread_mutex_t, %struct.dt_pthread_mutex_t, %struct.dt_pthread_mutex_t, %struct.dt_pthread_mutex_t, %struct.dt_pthread_mutex_t, ptr, ptr, ptr, ptr, ptr, ptr, ptr, ptr, ptr, ptr, ptr, ptr, ptr, %struct.dt_lua_state_t, ptr, double, ptr, i32, [47 x i32], i32, i32, ptr, ptr, %struct.dt_sys_resources_t, %struct.dt_backthumb_t, %struct.dt_gimp_t }
%struct.dt_codepath_t = type { i8, [3 x i8] }
%struct.dt_pthread_mutex_t = type { %union.pthread_mutex_t }
%union.pthread_mutex_t = type { %struct.__pthread_mutex_s }
%struct.__pthread_mutex_s = type { i32, i32, i32, i32, i32, i16, i16, %struct.__pthread_internal_list }
%struct.__pthread_internal_list = type { ptr, ptr }
%struct.dt_lua_state_t = type { i32 }
%struct.dt_sys_resources_t = type { i64, i64, ptr, ptr, i32 }
%struct.dt_backthumb_t = type { double, double, i32, i32, i32, i32 }
%struct.dt_gimp_t = type { i32, ptr, ptr, i32, i32 }
%struct._GdkRGBA = type { double, double, double, double }
%struct.dt_gui_gtk_t = type { ptr, %struct.dt_gui_widgets_t, %struct.dt_gui_scrollbars_t, i32, ptr, i32, [39 x %struct._GdkRGBA], i32, i32, i32, i32, i32, double, double, double, double, ptr, double, double, double, double, i32, i32, [4096 x i8], i32, i32, i32, %struct.dt_pthread_mutex_t }
%struct.dt_gui_widgets_t = type { ptr, ptr, ptr, ptr, i32, i32, i32 }
%struct.dt_gui_scrollbars_t = type { ptr, ptr, i32 }
%struct.dt_ui_t = type { [16 x ptr], [6 x ptr], ptr, ptr, ptr, ptr, ptr, ptr, ptr }

@_ui_panel_config_names = global [6 x ptr] [ptr @.str, ptr @.str.1, ptr @.str.2, ptr @.str.3, ptr @.str.4, ptr @.str.5], align 16
@darktable = external global %struct.darktable_t, align 8
@.str.77 = private unnamed_addr constant [20 x i8] c"panel_collaps_state\00", align 1
@.str.81 = private unnamed_addr constant [9 x i8] c"_visible\00", align 1
@.str.82 = private unnamed_addr constant [25 x i8] c"panels_collapse_controls\00", align 1
@.str.182 = private unnamed_addr constant [1 x i8] zeroinitializer, align 1
@.str.274 = private unnamed_addr constant [5 x i8] c"%s%s\00", align 1

; Function Attrs: nounwind uwtable
define internal ptr @_panels_get_panel_path(i32 noundef %0, ptr noundef %1) #0 {
  %3 = alloca ptr, align 8
  %4 = alloca i32, align 4
  %5 = alloca ptr, align 8
  %6 = alloca ptr, align 8
  %7 = alloca i32, align 4
  store i32 %0, ptr %4, align 4, !tbaa !17
  store ptr %1, ptr %5, align 8, !tbaa !11
  call void @llvm.lifetime.start.p0(i64 8, ptr %6) #15
  %8 = call ptr @_panels_get_view_path(ptr noundef @.str.182)
  store ptr %8, ptr %6, align 8, !tbaa !11
  %9 = load ptr, ptr %6, align 8, !tbaa !11
  %10 = icmp ne ptr %9, null
  br i1 %10, label %12, label %11

11:                                               ; preds = %2
  store ptr null, ptr %3, align 8
  store i32 1, ptr %7, align 4
  br label %19

12:                                               ; preds = %2
  %13 = load i32, ptr %4, align 4, !tbaa !17
  %14 = zext i32 %13 to i64
  %15 = getelementptr inbounds nuw [6 x ptr], ptr @_ui_panel_config_names, i64 0, i64 %14
  %16 = load ptr, ptr %15, align 8, !tbaa !11
  %17 = load ptr, ptr %5, align 8, !tbaa !11
  call void (ptr, ptr, ...) @dt_util_str_cat(ptr noundef %6, ptr noundef @.str.274, ptr noundef %16, ptr noundef %17)
  %18 = load ptr, ptr %6, align 8, !tbaa !11
  store ptr %18, ptr %3, align 8
  store i32 1, ptr %7, align 4
  br label %19

19:                                               ; preds = %12, %11
  call void @llvm.lifetime.end.p0(i64 8, ptr %6) #15
  %20 = load ptr, ptr %3, align 8
  ret ptr %20
}

; Function Attrs: nounwind uwtable
define void @dt_ui_restore_panels(ptr noundef %0) #0 {
  %2 = alloca ptr, align 8
  %3 = alloca ptr, align 8
  %4 = alloca i32, align 4
  %5 = alloca i32, align 4
  %6 = alloca i32, align 4
  %7 = alloca i32, align 4
  store ptr %0, ptr %2, align 8, !tbaa !76
  %8 = load ptr, ptr %2, align 8, !tbaa !76
  %9 = getelementptr inbounds nuw %struct.dt_ui_t, ptr %8, i32 0, i32 1
  %10 = getelementptr inbounds [6 x ptr], ptr %9, i64 0, i64 5
  %11 = load ptr, ptr %10, align 8, !tbaa !6
  call void @_ui_init_bottom_panel_size(ptr noundef %11)
  call void @llvm.lifetime.start.p0(i64 8, ptr %3) #15
  %12 = call ptr @_panels_get_view_path(ptr noundef @.str.77)
  store ptr %12, ptr %3, align 8, !tbaa !11
  call void @llvm.lifetime.start.p0(i64 4, ptr %4) #15
  %13 = load ptr, ptr %3, align 8, !tbaa !11
  %14 = call i32 @dt_conf_get_int(ptr noundef %13)
  store i32 %14, ptr %4, align 4, !tbaa !17
  %15 = load ptr, ptr %3, align 8, !tbaa !11
  call void @g_free(ptr noundef %15)
  %16 = load i32, ptr %4, align 4, !tbaa !17
  %17 = icmp ne i32 %16, 0
  br i1 %17, label %18, label %30

18:                                               ; preds = %1
  call void @llvm.lifetime.start.p0(i64 4, ptr %5) #15
  store i32 0, ptr %5, align 4, !tbaa !17
  br label %19

19:                                               ; preds = %26, %18
  %20 = load i32, ptr %5, align 4, !tbaa !17
  %21 = icmp slt i32 %20, 6
  br i1 %21, label %23, label %22

22:                                               ; preds = %19
  call void @llvm.lifetime.end.p0(i64 4, ptr %5) #15
  br label %29

23:                                               ; preds = %19
  %24 = load ptr, ptr %2, align 8, !tbaa !76
  %25 = load i32, ptr %5, align 4, !tbaa !17
  call void @dt_ui_panel_show(ptr noundef %24, i32 noundef %25, i32 noundef 0, i32 noundef 0)
  br label %26

26:                                               ; preds = %23
  %27 = load i32, ptr %5, align 4, !tbaa !17
  %28 = add nsw i32 %27, 1
  store i32 %28, ptr %5, align 4, !tbaa !17
  br label %19

29:                                               ; preds = %22
  br label %55

30:                                               ; preds = %1
  call void @llvm.lifetime.start.p0(i64 4, ptr %6) #15
  store i32 0, ptr %6, align 4, !tbaa !17
  br label %31

31:                                               ; preds = %51, %30
  %32 = load i32, ptr %6, align 4, !tbaa !17
  %33 = icmp slt i32 %32, 6
  br i1 %33, label %35, label %34

34:                                               ; preds = %31
  call void @llvm.lifetime.end.p0(i64 4, ptr %6) #15
  br label %54

35:                                               ; preds = %31
  %36 = load i32, ptr %6, align 4, !tbaa !17
  %37 = call ptr @_panels_get_panel_path(i32 noundef %36, ptr noundef @.str.81)
  store ptr %37, ptr %3, align 8, !tbaa !11
  %38 = load ptr, ptr %3, align 8, !tbaa !11
  %39 = call i32 @dt_conf_key_exists(ptr noundef %38)
  %40 = icmp ne i32 %39, 0
  br i1 %40, label %41, label %46

41:                                               ; preds = %35
  %42 = load ptr, ptr %2, align 8, !tbaa !76
  %43 = load i32, ptr %6, align 4, !tbaa !17
  %44 = load ptr, ptr %3, align 8, !tbaa !11
  %45 = call i32 @dt_conf_get_bool(ptr noundef %44)
  call void @dt_ui_panel_show(ptr noundef %42, i32 noundef %43, i32 noundef %45, i32 noundef 0)
  br label %49

46:                                               ; preds = %35
  %47 = load ptr, ptr %2, align 8, !tbaa !76
  %48 = load i32, ptr %6, align 4, !tbaa !17
  call void @dt_ui_panel_show(ptr noundef %47, i32 noundef %48, i32 noundef 1, i32 noundef 1)
  br label %49

49:                                               ; preds = %46, %41
  %50 = load ptr, ptr %3, align 8, !tbaa !11
  call void @g_free(ptr noundef %50)
  br label %51

51:                                               ; preds = %49
  %52 = load i32, ptr %6, align 4, !tbaa !17
  %53 = add nsw i32 %52, 1
  store i32 %53, ptr %6, align 4, !tbaa !17
  br label %31

54:                                               ; preds = %34
  br label %55

55:                                               ; preds = %54, %29
  call void @llvm.lifetime.start.p0(i64 4, ptr %7) #15
  store i32 1, ptr %7, align 4, !tbaa !17
  %56 = call ptr @_panels_get_view_path(ptr noundef @.str.82)
  store ptr %56, ptr %3, align 8, !tbaa !11
  %57 = load ptr, ptr %3, align 8, !tbaa !11
  %58 = call i32 @dt_conf_key_exists(ptr noundef %57)
  %59 = icmp ne i32 %58, 0
  br i1 %59, label %60, label %63

60:                                               ; preds = %55
  %61 = load ptr, ptr %3, align 8, !tbaa !11
  %62 = call i32 @dt_conf_get_bool(ptr noundef %61)
  store i32 %62, ptr %7, align 4, !tbaa !17
  br label %63

63:                                               ; preds = %60, %55
  %64 = load ptr, ptr %3, align 8, !tbaa !11
  %65 = load i32, ptr %7, align 4, !tbaa !17
  call void @dt_conf_set_bool(ptr noundef %64, i32 noundef %65)
  %66 = load ptr, ptr %3, align 8, !tbaa !11
  call void @g_free(ptr noundef %66)
  %67 = load ptr, ptr getelementptr inbounds nuw (%struct.darktable_t, ptr @darktable, i32 0, i32 14), align 8, !tbaa !24
  %68 = getelementptr inbounds nuw %struct.dt_gui_gtk_t, ptr %67, i32 0, i32 1
  %69 = getelementptr inbounds nuw %struct.dt_gui_widgets_t, ptr %68, i32 0, i32 1
  %70 = load ptr, ptr %69, align 8, !tbaa !134
  %71 = call i64 @gtk_widget_get_type() #16
  %72 = call ptr @g_type_check_instance_cast(ptr noundef %70, i64 noundef %71)
  %73 = load i32, ptr %7, align 4, !tbaa !17
  call void @gtk_widget_set_visible(ptr noundef %72, i32 noundef %73)
  %74 = load ptr, ptr getelementptr inbounds nuw (%struct.darktable_t, ptr @darktable, i32 0, i32 14), align 8, !tbaa !24
  %75 = getelementptr inbounds nuw %struct.dt_gui_gtk_t, ptr %74, i32 0, i32 1
  %76 = getelementptr inbounds nuw %struct.dt_gui_widgets_t, ptr %75, i32 0, i32 0
  %77 = load ptr, ptr %76, align 8, !tbaa !133
  %78 = call i64 @gtk_widget_get_type() #16
  %79 = call ptr @g_type_check_instance_cast(ptr noundef %77, i64 noundef %78)
  %80 = load i32, ptr %7, align 4, !tbaa !17
  call void @gtk_widget_set_visible(ptr noundef %79, i32 noundef %80)
  %81 = load ptr, ptr getelementptr inbounds nuw (%struct.darktable_t, ptr @darktable, i32 0, i32 14), align 8, !tbaa !24
  %82 = getelementptr inbounds nuw %struct.dt_gui_gtk_t, ptr %81, i32 0, i32 1
  %83 = getelementptr inbounds nuw %struct.dt_gui_widgets_t, ptr %82, i32 0, i32 3
  %84 = load ptr, ptr %83, align 8, !tbaa !135
  %85 = call i64 @gtk_widget_get_type() #16
  %86 = call ptr @g_type_check_instance_cast(ptr noundef %84, i64 noundef %85)
  %87 = load i32, ptr %7, align 4, !tbaa !17
  call void @gtk_widget_set_visible(ptr noundef %86, i32 noundef %87)
  %88 = load ptr, ptr getelementptr inbounds nuw (%struct.darktable_t, ptr @darktable, i32 0, i32 14), align 8, !tbaa !24
  %89 = getelementptr inbounds nuw %struct.dt_gui_gtk_t, ptr %88, i32 0, i32 1
  %90 = getelementptr inbounds nuw %struct.dt_gui_widgets_t, ptr %89, i32 0, i32 2
  %91 = load ptr, ptr %90, align 8, !tbaa !136
  %92 = call i64 @gtk_widget_get_type() #16
  %93 = call ptr @g_type_check_instance_cast(ptr noundef %91, i64 noundef %92)
  %94 = load i32, ptr %7, align 4, !tbaa !17
  call void @gtk_widget_set_visible(ptr noundef %93, i32 noundef %94)
  call void @llvm.lifetime.end.p0(i64 4, ptr %7) #15
  call void @llvm.lifetime.end.p0(i64 4, ptr %4) #15
  call void @llvm.lifetime.end.p0(i64 8, ptr %3) #15
  ret void
}