; Function Attrs: nounwind uwtable
define void @dt_ui_restore_panels(ptr noundef readonly captures(none) %0) local_unnamed_addr #0 {
  %2 = alloca ptr, align 8
  %3 = getelementptr inbounds nuw i8, ptr %0, i64 168
  %4 = load ptr, ptr %3, align 8, !tbaa !76
  tail call fastcc void @_ui_init_bottom_panel_size(ptr noundef %4)
  %5 = tail call fastcc ptr @_panels_get_view_path(ptr noundef nonnull @.str.77)
  %6 = tail call i32 @dt_conf_get_int(ptr noundef %5) #18
  tail call void @g_free(ptr noundef %5) #18
  %.not = icmp eq i32 %6, 0
  br i1 %.not, label %.preheader, label %.preheader30

.preheader30:                                     ; preds = %1, %.preheader30
  %.02732 = phi i32 [ %7, %.preheader30 ], [ 0, %1 ]
  tail call void @dt_ui_panel_show(ptr noundef %0, i32 noundef %.02732, i32 noundef 0, i32 noundef 0)
  %7 = add nuw nsw i32 %.02732, 1
  %exitcond.not = icmp eq i32 %7, 6
  br i1 %exitcond.not, label %.loopexit, label %.preheader30

.preheader:                                       ; preds = %1, %19
  %indvars.iv = phi i64 [ %indvars.iv.next, %19 ], [ 0, %1 ]
  call void @llvm.lifetime.start.p0(i64 8, ptr nonnull %2) #18
  %8 = call fastcc ptr @_panels_get_view_path(ptr noundef nonnull @.str.182)
  store ptr %8, ptr %2, align 8, !tbaa !126
  %.not.i = icmp eq ptr %8, null
  br i1 %.not.i, label %_panels_get_panel_path.exit, label %9

9:                                                ; preds = %.preheader
  %10 = getelementptr inbounds nuw [6 x ptr], ptr @_ui_panel_config_names, i64 0, i64 %indvars.iv
  %11 = load ptr, ptr %10, align 8, !tbaa !126
  call void (ptr, ptr, ...) @dt_util_str_cat(ptr noundef nonnull %2, ptr noundef nonnull @.str.274, ptr noundef %11, ptr noundef nonnull @.str.81) #18
  %12 = load ptr, ptr %2, align 8, !tbaa !126
  br label %_panels_get_panel_path.exit

_panels_get_panel_path.exit:                      ; preds = %.preheader, %9
  %.0.i = phi ptr [ %12, %9 ], [ null, %.preheader ]
  call void @llvm.lifetime.end.p0(i64 8, ptr nonnull %2) #18
  %13 = call i32 @dt_conf_key_exists(ptr noundef %.0.i) #18
  %.not28 = icmp eq i32 %13, 0
  br i1 %.not28, label %17, label %14

14:                                               ; preds = %_panels_get_panel_path.exit
  %15 = call i32 @dt_conf_get_bool(ptr noundef %.0.i) #18
  %16 = trunc nuw nsw i64 %indvars.iv to i32
  call void @dt_ui_panel_show(ptr noundef %0, i32 noundef %16, i32 noundef %15, i32 noundef 0)
  br label %19

17:                                               ; preds = %_panels_get_panel_path.exit
  %18 = trunc nuw nsw i64 %indvars.iv to i32
  call void @dt_ui_panel_show(ptr noundef %0, i32 noundef %18, i32 noundef 1, i32 noundef 1)
  br label %19

19:                                               ; preds = %17, %14
  call void @g_free(ptr noundef %.0.i) #18
  %indvars.iv.next = add nuw nsw i64 %indvars.iv, 1
  %exitcond36.not = icmp eq i64 %indvars.iv.next, 6
  br i1 %exitcond36.not, label %.loopexit, label %.preheader

.loopexit:                                        ; preds = %.preheader30, %19
  %20 = call fastcc ptr @_panels_get_view_path(ptr noundef nonnull @.str.82)
  %21 = call i32 @dt_conf_key_exists(ptr noundef %20) #18
  %.not29 = icmp eq i32 %21, 0
  br i1 %.not29, label %24, label %22

22:                                               ; preds = %.loopexit
  %23 = call i32 @dt_conf_get_bool(ptr noundef %20) #18
  br label %24

24:                                               ; preds = %22, %.loopexit
  %.0 = phi i32 [ %23, %22 ], [ 1, %.loopexit ]
  call void @dt_conf_set_bool(ptr noundef %20, i32 noundef %.0) #18
  call void @g_free(ptr noundef %20) #18
  %25 = load ptr, ptr getelementptr inbounds nuw (i8, ptr @darktable, i64 104), align 8, !tbaa !15
  %26 = getelementptr inbounds nuw i8, ptr %25, i64 16
  %27 = load ptr, ptr %26, align 8, !tbaa !110
  %28 = tail call i64 @gtk_widget_get_type() #19
  %29 = call ptr @g_type_check_instance_cast(ptr noundef %27, i64 noundef %28) #18
  call void @gtk_widget_set_visible(ptr noundef %29, i32 noundef %.0) #18
  %30 = load ptr, ptr getelementptr inbounds nuw (i8, ptr @darktable, i64 104), align 8, !tbaa !15
  %31 = getelementptr inbounds nuw i8, ptr %30, i64 8
  %32 = load ptr, ptr %31, align 8, !tbaa !109
  %33 = call ptr @g_type_check_instance_cast(ptr noundef %32, i64 noundef %28) #18
  call void @gtk_widget_set_visible(ptr noundef %33, i32 noundef %.0) #18
  %34 = load ptr, ptr getelementptr inbounds nuw (i8, ptr @darktable, i64 104), align 8, !tbaa !15
  %35 = getelementptr inbounds nuw i8, ptr %34, i64 32
  %36 = load ptr, ptr %35, align 8, !tbaa !108
  %37 = call ptr @g_type_check_instance_cast(ptr noundef %36, i64 noundef %28) #18
  call void @gtk_widget_set_visible(ptr noundef %37, i32 noundef %.0) #18
  %38 = load ptr, ptr getelementptr inbounds nuw (i8, ptr @darktable, i64 104), align 8, !tbaa !15
  %39 = getelementptr inbounds nuw i8, ptr %38, i64 24
  %40 = load ptr, ptr %39, align 8, !tbaa !121
  %41 = call ptr @g_type_check_instance_cast(ptr noundef %40, i64 noundef %28) #18
  call void @gtk_widget_set_visible(ptr noundef %41, i32 noundef %.0) #18
  ret void
}